target datalayout = "e-m:e-p270:32:32-p271:32:32-p272:64:64-i64:64-i128:128-f80:128-n8:16:32:64-S128"
target triple = "x86_64-pc-linux-gnu"

%struct.mi_heap_s = type { ptr, ptr, i64, i32, i64, [2 x i64], %struct.mi_random_cxt_s, i64, i64, i64, ptr, i8, i8, [129 x ptr], [75 x %struct.mi_page_queue_s] }
%struct.mi_random_cxt_s = type { [16 x i32], [16 x i32], i32, i8 }
%struct.mi_page_queue_s = type { ptr, ptr, i64 }
%struct.mi_page_s = type { i32, i32, i8, i16, i16, %union.mi_page_flags_s, i8, ptr, ptr, i16, i8, i8, i64, ptr, i64, i64, ptr, ptr, [1 x ptr] }
%union.mi_page_flags_s = type { i8 }

; Function Attrs: inlinehint nounwind uwtable
define internal i64 @mi_clz(i64 noundef %0) #1 {
  %2 = alloca i64, align 8
  %3 = alloca i64, align 8
  store i64 %0, ptr %3, align 8, !tbaa !3
  %4 = load i64, ptr %3, align 8, !tbaa !3
  %5 = icmp eq i64 %4, 0
  br i1 %5, label %6, label %7

6:                                                ; preds = %1
  store i64 64, ptr %2, align 8
  br label %12

7:                                                ; preds = %1
  %8 = load i64, ptr %3, align 8, !tbaa !3
  %9 = call i64 @llvm.ctlz.i64(i64 %8, i1 true)
  %10 = trunc i64 %9 to i32
  %11 = sext i32 %10 to i64
  store i64 %11, ptr %2, align 8
  br label %12

12:                                               ; preds = %7, %6
  %13 = load i64, ptr %2, align 8
  ret i64 %13
}

; Function Attrs: inlinehint nounwind uwtable
define internal i64 @mi_bsr(i64 noundef %0) #1 {
  %2 = alloca i64, align 8
  store i64 %0, ptr %2, align 8, !tbaa !3
  %3 = load i64, ptr %2, align 8, !tbaa !3
  %4 = icmp eq i64 %3, 0
  br i1 %4, label %5, label %6

5:                                                ; preds = %1
  br label %10

6:                                                ; preds = %1
  %7 = load i64, ptr %2, align 8, !tbaa !3
  %8 = call i64 @mi_clz(i64 noundef %7) #10
  %9 = sub i64 63, %8
  br label %10

10:                                               ; preds = %6, %5
  %11 = phi i64 [ 64, %5 ], [ %9, %6 ]
  ret i64 %11
}

; Function Attrs: inlinehint nounwind uwtable
define internal i64 @_mi_wsize_from_size(i64 noundef %0) #1 {
  %2 = alloca i64, align 8
  store i64 %0, ptr %2, align 8, !tbaa !3
  %3 = load i64, ptr %2, align 8, !tbaa !3
  %4 = add i64 %3, 8
  %5 = sub i64 %4, 1
  %6 = udiv i64 %5, 8
  ret i64 %6
}

; Function Attrs: inlinehint nounwind uwtable
define internal zeroext i8 @mi_bin(i64 noundef %0) #1 {
  %2 = alloca i64, align 8
  %3 = alloca i64, align 8
  %4 = alloca i8, align 1
  %5 = alloca i8, align 1
  store i64 %0, ptr %2, align 8, !tbaa !3
  call void @llvm.lifetime.start.p0(i64 8, ptr %3) #6
  %6 = load i64, ptr %2, align 8, !tbaa !3
  %7 = call i64 @_mi_wsize_from_size(i64 noundef %6) #10
  store i64 %7, ptr %3, align 8, !tbaa !3
  call void @llvm.lifetime.start.p0(i64 1, ptr %4) #6
  %8 = load i64, ptr %3, align 8, !tbaa !3
  %9 = icmp ule i64 %8, 1
  br i1 %9, label %10, label %11

10:                                               ; preds = %1
  store i8 1, ptr %4, align 1, !tbaa !7
  br label %46

11:                                               ; preds = %1
  %12 = load i64, ptr %3, align 8, !tbaa !3
  %13 = icmp ule i64 %12, 8
  br i1 %13, label %14, label %19

14:                                               ; preds = %11
  %15 = load i64, ptr %3, align 8, !tbaa !3
  %16 = add i64 %15, 1
  %17 = and i64 %16, -2
  %18 = trunc i64 %17 to i8
  store i8 %18, ptr %4, align 1, !tbaa !7
  br label %45

19:                                               ; preds = %11
  %20 = load i64, ptr %3, align 8, !tbaa !3
  %21 = icmp ugt i64 %20, 16384
  br i1 %21, label %22, label %23

22:                                               ; preds = %19
  store i8 73, ptr %4, align 1, !tbaa !7
  br label %44

23:                                               ; preds = %19
  %24 = load i64, ptr %3, align 8, !tbaa !3
  %25 = add i64 %24, -1
  store i64 %25, ptr %3, align 8, !tbaa !3
  call void @llvm.lifetime.start.p0(i64 1, ptr %5) #6
  %26 = load i64, ptr %3, align 8, !tbaa !3
  %27 = call i64 @mi_bsr(i64 noundef %26) #10
  %28 = trunc i64 %27 to i8
  store i8 %28, ptr %5, align 1, !tbaa !7
  %29 = load i8, ptr %5, align 1, !tbaa !7
  %30 = zext i8 %29 to i32
  %31 = shl i32 %30, 2
  %32 = load i64, ptr %3, align 8, !tbaa !3
  %33 = load i8, ptr %5, align 1, !tbaa !7
  %34 = zext i8 %33 to i32
  %35 = sub nsw i32 %34, 2
  %36 = zext i32 %35 to i64
  %37 = lshr i64 %32, %36
  %38 = and i64 %37, 3
  %39 = trunc i64 %38 to i8
  %40 = zext i8 %39 to i32
  %41 = add nsw i32 %31, %40
  %42 = sub nsw i32 %41, 3
  %43 = trunc i32 %42 to i8
  store i8 %43, ptr %4, align 1, !tbaa !7
  call void @llvm.lifetime.end.p0(i64 1, ptr %5) #6
  br label %44

44:                                               ; preds = %23, %22
  br label %45

45:                                               ; preds = %44, %14
  br label %46

46:                                               ; preds = %45, %10
  %47 = load i8, ptr %4, align 1, !tbaa !7
  call void @llvm.lifetime.end.p0(i64 1, ptr %4) #6
  call void @llvm.lifetime.end.p0(i64 8, ptr %3) #6
  ret i8 %47
}

; Function Attrs: inlinehint nounwind uwtable
define internal i64 @mi_page_block_size(ptr noundef %0) #1 {
  %2 = alloca ptr, align 8
  store ptr %0, ptr %2, align 8, !tbaa !17
  %3 = load ptr, ptr %2, align 8, !tbaa !17
  %4 = getelementptr inbounds nuw %struct.mi_page_s, ptr %3, i32 0, i32 12
  %5 = load i64, ptr %4, align 8, !tbaa !48
  ret i64 %5
}

; Function Attrs: nounwind uwtable
define hidden zeroext i8 @_mi_bin(i64 noundef %0) #0 {
  %2 = alloca i64, align 8
  store i64 %0, ptr %2, align 8, !tbaa !3
  %3 = load i64, ptr %2, align 8, !tbaa !3
  %4 = call zeroext i8 @mi_bin(i64 noundef %3) #10
  ret i8 %4
}

; Function Attrs: inlinehint nounwind uwtable
define internal i64 @mi_page_usable_block_size(ptr noundef %0) #1 {
  %2 = alloca ptr, align 8
  store ptr %0, ptr %2, align 8, !tbaa !17
  %3 = load ptr, ptr %2, align 8, !tbaa !17
  %4 = call i64 @mi_page_block_size(ptr noundef %3) #10
  %5 = sub i64 %4, 0
  ret i64 %5
}

; Function Attrs: inlinehint nounwind uwtable
define internal ptr @mi_page_queue(ptr noundef %0, i64 noundef %1) #1 {
  %3 = alloca ptr, align 8
  %4 = alloca i64, align 8
  store ptr %0, ptr %3, align 8, !tbaa !12
  store i64 %1, ptr %4, align 8, !tbaa !3
  %5 = load ptr, ptr %3, align 8, !tbaa !12
  %6 = getelementptr inbounds nuw %struct.mi_heap_s, ptr %5, i32 0, i32 14
  %7 = load i64, ptr %4, align 8, !tbaa !3
  %8 = call zeroext i8 @_mi_bin(i64 noundef %7) #10
  %9 = zext i8 %8 to i64
  %10 = getelementptr inbounds nuw [75 x %struct.mi_page_queue_s], ptr %6, i64 0, i64 %9
  ret ptr %10
}

; Function Attrs: nounwind uwtable
define internal ptr @mi_large_huge_page_alloc(ptr noundef %0, i64 noundef %1, i64 noundef %2) #0 {
  %4 = alloca ptr, align 8
  %5 = alloca i64, align 8
  %6 = alloca i64, align 8
  %7 = alloca i64, align 8
  %8 = alloca i8, align 1
  %9 = alloca ptr, align 8
  %10 = alloca ptr, align 8
  %11 = alloca i64, align 8
  store ptr %0, ptr %4, align 8, !tbaa !12
  store i64 %1, ptr %5, align 8, !tbaa !3
  store i64 %2, ptr %6, align 8, !tbaa !3
  call void @llvm.lifetime.start.p0(i64 8, ptr %7) #6
  %12 = load i64, ptr %5, align 8, !tbaa !3
  %13 = call i64 @_mi_os_good_alloc_size(i64 noundef %12) #10
  store i64 %13, ptr %7, align 8, !tbaa !3
  call void @llvm.lifetime.start.p0(i64 1, ptr %8) #6
  %14 = load i64, ptr %7, align 8, !tbaa !3
  %15 = icmp ugt i64 %14, 16777216
  br i1 %15, label %19, label %16

16:                                               ; preds = %3
  %17 = load i64, ptr %6, align 8, !tbaa !3
  %18 = icmp ugt i64 %17, 0
  br label %19

19:                                               ; preds = %16, %3
  %20 = phi i1 [ true, %3 ], [ %18, %16 ]
  %21 = zext i1 %20 to i8
  store i8 %21, ptr %8, align 1, !tbaa !29
  call void @llvm.lifetime.start.p0(i64 8, ptr %9) #6
  %22 = load ptr, ptr %4, align 8, !tbaa !12
  %23 = load i8, ptr %8, align 1, !tbaa !29, !range !31, !noundef !32
  %24 = trunc i8 %23 to i1
  br i1 %24, label %25, label %26

25:                                               ; preds = %19
  br label %28

26:                                               ; preds = %19
  %27 = load i64, ptr %7, align 8, !tbaa !3
  br label %28

28:                                               ; preds = %26, %25
  %29 = phi i64 [ 16777217, %25 ], [ %27, %26 ]
  %30 = call ptr @mi_page_queue(ptr noundef %22, i64 noundef %29) #10
  store ptr %30, ptr %9, align 8, !tbaa !14
  call void @llvm.lifetime.start.p0(i64 8, ptr %10) #6
  %31 = load ptr, ptr %4, align 8, !tbaa !12
  %32 = load ptr, ptr %9, align 8, !tbaa !14
  %33 = load i64, ptr %7, align 8, !tbaa !3
  %34 = load i64, ptr %6, align 8, !tbaa !3
  %35 = call ptr @mi_page_fresh_alloc(ptr noundef %31, ptr noundef %32, i64 noundef %33, i64 noundef %34) #10
  store ptr %35, ptr %10, align 8, !tbaa !17
  %36 = load ptr, ptr %10, align 8, !tbaa !17
  %37 = icmp ne ptr %36, null
  br i1 %37, label %38, label %51

38:                                               ; preds = %28
  %39 = load i8, ptr %8, align 1, !tbaa !29, !range !31, !noundef !32
  %40 = trunc i8 %39 to i1
  br i1 %40, label %41, label %42

41:                                               ; preds = %38
  br label %43

42:                                               ; preds = %38
  br label %43

43:                                               ; preds = %42, %41
  call void @llvm.lifetime.start.p0(i64 8, ptr %11) #6
  %44 = load ptr, ptr %10, align 8, !tbaa !17
  %45 = call i64 @mi_page_usable_block_size(ptr noundef %44) #10
  store i64 %45, ptr %11, align 8, !tbaa !3
  %46 = load i64, ptr %11, align 8, !tbaa !3
  %47 = icmp ule i64 %46, 16777216
  br i1 %47, label %48, label %49

48:                                               ; preds = %43
  br label %50

49:                                               ; preds = %43
  br label %50

50:                                               ; preds = %49, %48
  call void @llvm.lifetime.end.p0(i64 8, ptr %11) #6
  br label %51

51:                                               ; preds = %50, %28
  %52 = load ptr, ptr %10, align 8, !tbaa !17
  call void @llvm.lifetime.end.p0(i64 8, ptr %10) #6
  call void @llvm.lifetime.end.p0(i64 8, ptr %9) #6
  call void @llvm.lifetime.end.p0(i64 1, ptr %8) #6
  call void @llvm.lifetime.end.p0(i64 8, ptr %7) #6
  ret ptr %52
}