; Function Attrs: nounwind uwtable
define internal fastcc ptr @mi_large_huge_page_alloc(ptr noundef %0, i64 noundef range(i64 0, 281474976579585) %1, i64 noundef %2) unnamed_addr #1 {
  %4 = tail call i64 @_mi_os_good_alloc_size(i64 noundef %1) #13
  %5 = icmp ugt i64 %4, 16777216
  %6 = icmp ne i64 %2, 0
  %7 = or i1 %6, %5
  %8 = add i64 %4, 7
  %9 = select i1 %7, i64 16777224, i64 %8
  %10 = lshr i64 %9, 3
  %11 = icmp ult i64 %9, 16
  br i1 %11, label %mi_page_queue.exit, label %12

12:                                               ; preds = %3
  %13 = icmp ult i64 %9, 72
  br i1 %13, label %14, label %17

14:                                               ; preds = %12
  %15 = add nuw nsw i64 %10, 1
  %16 = and i64 %15, 30
  br label %mi_page_queue.exit

17:                                               ; preds = %12
  %18 = icmp ugt i64 %9, 131079
  br i1 %18, label %mi_page_queue.exit, label %19

19:                                               ; preds = %17
  %20 = add nsw i64 %10, -1
  %21 = tail call range(i64 50, 61) i64 @llvm.ctlz.i64(i64 range(i64 8, 16384) %20, i1 true)
  %22 = shl nuw nsw i64 %21, 2
  %23 = xor i64 %22, 252
  %24 = sub nuw nsw i64 61, %21
  %25 = lshr i64 %20, %24
  %26 = and i64 %25, 3
  %27 = add nuw nsw i64 %23, 253
  %28 = add nuw nsw i64 %27, %26
  %29 = and i64 %28, 255
  br label %mi_page_queue.exit

mi_page_queue.exit:                               ; preds = %3, %14, %17, %19
  %.0.i.i.i = phi i64 [ %16, %14 ], [ %29, %19 ], [ 1, %3 ], [ 73, %17 ]
  %30 = getelementptr inbounds nuw i8, ptr %0, i64 1264
  %31 = getelementptr inbounds nuw [75 x %struct.mi_page_queue_s], ptr %30, i64 0, i64 %.0.i.i.i
  %32 = tail call fastcc ptr @mi_page_fresh_alloc(ptr noundef %0, ptr noundef nonnull %31, i64 noundef %4, i64 noundef %2) #14
  ret ptr %32
}